target datalayout = "e-m:e-p270:32:32-p271:32:32-p272:64:64-i64:64-i128:128-f80:128-n8:16:32:64-S128"
target triple = "x86_64-pc-linux-gnu"

%struct.ssl_st = type { i32, i16, i16, ptr, ptr, ptr, ptr, ptr, i32, i32, ptr, ptr, i32, i32, ptr, ptr, ptr, ptr, ptr, ptr, ptr, ptr, i32, i32, [32 x i8], ptr, ptr, ptr, ptr, ptr, ptr, ptr, i64, %struct.crypto_ex_data_st, ptr, i32, i32, i32, i32, i16, ptr, i32, i64, ptr, ptr, ptr, ptr, ptr, ptr, i32, i32, ptr, ptr, i8, i8, i32 }
%struct.crypto_ex_data_st = type { ptr }
%struct.ssl3_state_st = type { [8 x i8], [8 x i8], [32 x i8], [32 x i8], i8, i8, %struct.ssl3_buffer_st, %struct.ssl3_buffer_st, %struct.ssl3_record_st, i8, i32, i32, i32, i32, ptr, ptr, %struct.env_md_ctx_st, %struct.env_md_ctx_st, i8, i32, [2 x i8], i32, i8, i8, ptr, ptr, ptr, %struct.anon, [64 x i8], i8, [64 x i8], i8, i32, i32, ptr, i64, ptr, i64, i8, [64 x i8] }
%struct.ssl3_buffer_st = type { ptr, i16, i16, i16 }
%struct.ssl3_record_st = type { i8, i16, ptr }
%struct.env_md_ctx_st = type { ptr, ptr, ptr, ptr }
%struct.anon = type { [64 x i8], i32, [64 x i8], i32, i64, i32, ptr, i32, i32, %union.anon, %union.anon.0, i8, i32, ptr, ptr, i64, ptr, i8, i8, i8, i8, i32, i8, ptr, i64, i8, ptr, i8, i8, i8, %struct.ssl_ecdh_ctx_st, ptr, i16 }
%union.anon = type { i32 }
%union.anon.0 = type { i16 }
%struct.ssl_ecdh_ctx_st = type { ptr, ptr }

; Function Attrs: nounwind uwtable
define internal i32 @ext_ems_parse_clienthello(ptr noundef %0, ptr noundef %1, ptr noundef %2) #0 {
  %4 = alloca i32, align 4
  %5 = alloca ptr, align 8
  %6 = alloca ptr, align 8
  %7 = alloca ptr, align 8
  store ptr %0, ptr %5, align 8, !tbaa !69
  store ptr %1, ptr %6, align 8, !tbaa !55
  store ptr %2, ptr %7, align 8, !tbaa !52
  %8 = load ptr, ptr %5, align 8, !tbaa !69
  %9 = getelementptr inbounds nuw %struct.ssl_st, ptr %8, i32 0, i32 0
  %10 = load i32, ptr %9, align 8, !tbaa !139
  %11 = icmp eq i32 %10, 768
  br i1 %11, label %15, label %12

12:                                               ; preds = %3
  %13 = load ptr, ptr %7, align 8, !tbaa !52
  %14 = icmp eq ptr %13, null
  br i1 %14, label %15, label %16

15:                                               ; preds = %12, %3
  store i32 1, ptr %4, align 4
  br label %27

16:                                               ; preds = %12
  %17 = load ptr, ptr %7, align 8, !tbaa !52
  %18 = call i64 @CBS_len(ptr noundef %17)
  %19 = icmp ne i64 %18, 0
  br i1 %19, label %20, label %21

20:                                               ; preds = %16
  store i32 0, ptr %4, align 4
  br label %27

21:                                               ; preds = %16
  %22 = load ptr, ptr %5, align 8, !tbaa !69
  %23 = getelementptr inbounds nuw %struct.ssl_st, ptr %22, i32 0, i32 14
  %24 = load ptr, ptr %23, align 8, !tbaa !75
  %25 = getelementptr inbounds nuw %struct.ssl3_state_st, ptr %24, i32 0, i32 27
  %26 = getelementptr inbounds nuw %struct.anon, ptr %25, i32 0, i32 25
  store i8 1, ptr %26, align 8, !tbaa !185
  store i32 1, ptr %4, align 4
  br label %27

27:                                               ; preds = %21, %20, %15
  %28 = load i32, ptr %4, align 4
  ret i32 %28
}