; Function Attrs: nounwind uwtable
define internal range(i32 0, 2) i32 @ext_ems_parse_clienthello(ptr noundef readonly captures(none) %0, ptr readnone captures(none) %1, ptr noundef %2) #0 {
  %4 = load i32, ptr %0, align 8, !tbaa !118
  %5 = icmp eq i32 %4, 768
  %6 = icmp eq ptr %2, null
  %or.cond = or i1 %6, %5
  br i1 %or.cond, label %13, label %7

7:                                                ; preds = %3
  %8 = tail call i64 @CBS_len(ptr noundef nonnull %2) #21
  %.not = icmp eq i64 %8, 0
  br i1 %.not, label %9, label %13

9:                                                ; preds = %7
  %10 = getelementptr inbounds nuw i8, ptr %0, i64 80
  %11 = load ptr, ptr %10, align 8, !tbaa !58
  %12 = getelementptr inbounds nuw i8, ptr %11, i64 536
  store i8 1, ptr %12, align 8, !tbaa !154
  br label %13

13:                                               ; preds = %7, %3, %9
  %.0 = phi i32 [ 1, %9 ], [ 1, %3 ], [ 0, %7 ]
  ret i32 %.0
}